target datalayout = "e-m:e-p270:32:32-p271:32:32-p272:64:64-i64:64-i128:128-f80:128-n8:16:32:64-S128"
target triple = "x86_64-pc-linux-gnu"

%class.mpz = type { i32, i8, ptr }
%class.svector.1 = type { %class.vector.2 }
%class.vector.2 = type { ptr }
%"class.upolynomial::core_manager" = type { ptr, %class.mpzzp_manager, %class.svector.1, %class.svector.1, %class.svector.1, %class.svector.1, %class.svector.1, %class.svector.1, %class.svector.1, [6 x %class.svector.1], %class.svector.1, %class.svector.1, %class.svector.1 }
%class.mpzzp_manager = type { ptr, i8, %class.mpz, %class.mpz, %class.mpz, i8, %class.mpz, %class.mpz, %class.mpz, %class.mpz }

; Function Attrs: mustprogress uwtable
define linkonce_odr hidden void @_ZN13mpzzp_manager11p_normalizeER3mpz(ptr noundef nonnull align 8 dereferenceable(136) %0, ptr noundef nonnull align 8 dereferenceable(16) %1) #4 comdat align 2 {
  %3 = alloca ptr, align 8
  %4 = alloca ptr, align 8
  store ptr %0, ptr %3, align 8, !tbaa !31
  store ptr %1, ptr %4, align 8, !tbaa !26
  %5 = load ptr, ptr %3, align 8
  %6 = getelementptr inbounds nuw %class.mpzzp_manager, ptr %5, i32 0, i32 1
  %7 = load i8, ptr %6, align 8, !tbaa !61, !range !78, !noundef !79
  %8 = trunc i8 %7 to i1
  br i1 %8, label %11, label %9

9:                                                ; preds = %2
  %10 = load ptr, ptr %4, align 8, !tbaa !26
  call void @_ZN13mpzzp_manager16p_normalize_coreER3mpz(ptr noundef nonnull align 8 dereferenceable(136) %5, ptr noundef nonnull align 8 dereferenceable(16) %10)
  br label %11

11:                                               ; preds = %9, %2
  ret void
}

; Function Attrs: mustprogress nounwind uwtable
define linkonce_odr hidden noundef nonnull align 8 dereferenceable(600) ptr @_ZNK13mpzzp_manager1mEv(ptr noundef nonnull align 8 dereferenceable(136) %0) #5 comdat align 2 {
  %2 = alloca ptr, align 8
  store ptr %0, ptr %2, align 8, !tbaa !31
  %3 = load ptr, ptr %2, align 8
  %4 = getelementptr inbounds nuw %class.mpzzp_manager, ptr %3, i32 0, i32 0
  %5 = load ptr, ptr %4, align 8, !tbaa !119
  ret ptr %5
}

; Function Attrs: mustprogress uwtable
define linkonce_odr hidden void @_ZN13mpzzp_manager3negER3mpz(ptr noundef nonnull align 8 dereferenceable(136) %0, ptr noundef nonnull align 8 dereferenceable(16) %1) #4 comdat align 2 {
  %3 = alloca ptr, align 8
  %4 = alloca ptr, align 8
  store ptr %0, ptr %3, align 8, !tbaa !31
  store ptr %1, ptr %4, align 8, !tbaa !26
  %5 = load ptr, ptr %3, align 8
  %6 = call noundef nonnull align 8 dereferenceable(600) ptr @_ZNK13mpzzp_manager1mEv(ptr noundef nonnull align 8 dereferenceable(136) %5)
  %7 = load ptr, ptr %4, align 8, !tbaa !26
  call void @_ZN11mpz_managerILb0EE3negER3mpz(ptr noundef nonnull align 8 dereferenceable(600) %6, ptr noundef nonnull align 8 dereferenceable(16) %7)
  %8 = load ptr, ptr %4, align 8, !tbaa !26
  call void @_ZN13mpzzp_manager11p_normalizeER3mpz(ptr noundef nonnull align 8 dereferenceable(136) %5, ptr noundef nonnull align 8 dereferenceable(16) %8)
  ret void
}

; Function Attrs: mustprogress nounwind uwtable
define linkonce_odr hidden noundef nonnull align 8 dereferenceable(136) ptr @_ZNK11upolynomial12core_manager1mEv(ptr noundef nonnull align 8 dereferenceable(272) %0) #5 comdat align 2 {
  %2 = alloca ptr, align 8
  store ptr %0, ptr %2, align 8, !tbaa !8
  %3 = load ptr, ptr %2, align 8
  %4 = getelementptr inbounds nuw %"class.upolynomial::core_manager", ptr %3, i32 0, i32 1
  ret ptr %4
}

; Function Attrs: mustprogress uwtable
define hidden void @_ZN11upolynomial12core_manager3negEjP3mpz(ptr noundef nonnull align 8 dereferenceable(272) %0, i32 noundef %1, ptr noundef %2) #4 align 2 {
  %4 = alloca ptr, align 8
  %5 = alloca i32, align 4
  %6 = alloca ptr, align 8
  %7 = alloca i32, align 4
  store ptr %0, ptr %4, align 8, !tbaa !8
  store i32 %1, ptr %5, align 4, !tbaa !33
  store ptr %2, ptr %6, align 8, !tbaa !26
  %8 = load ptr, ptr %4, align 8
  call void @llvm.lifetime.start.p0(i64 4, ptr %7) #3
  store i32 0, ptr %7, align 4, !tbaa !33
  br label %9

9:                                                ; preds = %20, %3
  %10 = load i32, ptr %7, align 4, !tbaa !33
  %11 = load i32, ptr %5, align 4, !tbaa !33
  %12 = icmp ult i32 %10, %11
  br i1 %12, label %14, label %13

13:                                               ; preds = %9
  call void @llvm.lifetime.end.p0(i64 4, ptr %7) #3
  br label %23

14:                                               ; preds = %9
  %15 = call noundef nonnull align 8 dereferenceable(136) ptr @_ZNK11upolynomial12core_manager1mEv(ptr noundef nonnull align 8 dereferenceable(272) %8)
  %16 = load ptr, ptr %6, align 8, !tbaa !26
  %17 = load i32, ptr %7, align 4, !tbaa !33
  %18 = zext i32 %17 to i64
  %19 = getelementptr inbounds nuw %class.mpz, ptr %16, i64 %18
  call void @_ZN13mpzzp_manager3negER3mpz(ptr noundef nonnull align 8 dereferenceable(136) %15, ptr noundef nonnull align 8 dereferenceable(16) %19)
  br label %20

20:                                               ; preds = %14
  %21 = load i32, ptr %7, align 4, !tbaa !33
  %22 = add i32 %21, 1
  store i32 %22, ptr %7, align 4, !tbaa !33
  br label %9, !llvm.loop !80

23:                                               ; preds = %13
  ret void
}