; Function Attrs: mustprogress uwtable
define hidden void @_ZN11upolynomial12core_manager3negEjP3mpz(ptr noundef nonnull align 8 dereferenceable(272) %0, i32 noundef %1, ptr noundef %2) local_unnamed_addr #3 align 2 {
  %.not = icmp eq i32 %1, 0
  br i1 %.not, label %._crit_edge, label %.lr.ph

.lr.ph:                                           ; preds = %3
  %4 = getelementptr inbounds nuw i8, ptr %0, i64 8
  %5 = getelementptr inbounds nuw i8, ptr %0, i64 16
  %wide.trip.count = zext i32 %1 to i64
  br label %6

._crit_edge:                                      ; preds = %_ZN13mpzzp_manager3negER3mpz.exit, %3
  ret void

6:                                                ; preds = %.lr.ph, %_ZN13mpzzp_manager3negER3mpz.exit
  %indvars.iv = phi i64 [ 0, %.lr.ph ], [ %indvars.iv.next, %_ZN13mpzzp_manager3negER3mpz.exit ]
  %7 = getelementptr inbounds nuw %class.mpz, ptr %2, i64 %indvars.iv
  %8 = load ptr, ptr %4, align 8, !tbaa !33
  tail call void @_ZN11mpz_managerILb0EE3negER3mpz(ptr noundef nonnull align 8 dereferenceable(600) %8, ptr noundef nonnull align 8 dereferenceable(16) %7)
  %9 = load i8, ptr %5, align 8, !tbaa !12, !range !16, !noundef !17
  %10 = trunc nuw i8 %9 to i1
  br i1 %10, label %_ZN13mpzzp_manager3negER3mpz.exit, label %11

11:                                               ; preds = %6
  tail call void @_ZN13mpzzp_manager16p_normalize_coreER3mpz(ptr noundef nonnull align 8 dereferenceable(136) %4, ptr noundef nonnull align 8 dereferenceable(16) %7)
  br label %_ZN13mpzzp_manager3negER3mpz.exit

_ZN13mpzzp_manager3negER3mpz.exit:                ; preds = %6, %11
  %indvars.iv.next = add nuw nsw i64 %indvars.iv, 1
  %exitcond.not = icmp eq i64 %indvars.iv.next, %wide.trip.count
  br i1 %exitcond.not, label %._crit_edge, label %6, !llvm.loop !74
}